target datalayout = "e-m:e-p270:32:32-p271:32:32-p272:64:64-i64:64-i128:128-f80:128-n8:16:32:64-S128"
target triple = "x86_64-pc-linux-gnu"

%"struct.faiss::ScalarQuantizer::SQuantizer" = type { ptr }
%"struct.faiss::(anonymous namespace)::QuantizerTemplate.6" = type { %"struct.faiss::ScalarQuantizer::SQuantizer", i64, float, float }
%"struct.faiss::ScalarQuantizer::SQDistanceComputer" = type { %"struct.faiss::FlatCodesDistanceComputer", ptr }
%"struct.faiss::FlatCodesDistanceComputer" = type { %"struct.faiss::DistanceComputer", ptr, i64 }
%"struct.faiss::DistanceComputer" = type { ptr }
%"struct.faiss::(anonymous namespace)::DCTemplate.21" = type { %"struct.faiss::ScalarQuantizer::SQDistanceComputer", %"struct.faiss::(anonymous namespace)::QuantizerTemplate.6" }
%"struct.faiss::(anonymous namespace)::SimilarityIP" = type <{ ptr, ptr, float, [4 x i8] }>
%"struct.faiss::InvertedListScanner" = type { ptr, i64, i8, i8, ptr, i64 }
%"struct.faiss::(anonymous namespace)::IVFSQScannerIP.53" = type { %"struct.faiss::InvertedListScanner", %"struct.faiss::(anonymous namespace)::DCTemplate.21", i8, float }

; Function Attrs: mustprogress nounwind uwtable
define internal void @_ZN5faiss12_GLOBAL__N_112SimilarityIPILi1EEC2EPKf(ptr noundef nonnull align 8 dereferenceable(20) %0, ptr noundef %1) unnamed_addr #1 align 2 {
  %3 = alloca ptr, align 8
  %4 = alloca ptr, align 8
  store ptr %0, ptr %3, align 8
  store ptr %1, ptr %4, align 8
  %5 = load ptr, ptr %3, align 8
  %6 = getelementptr inbounds %"struct.faiss::(anonymous namespace)::SimilarityIP", ptr %5, i32 0, i32 0
  %7 = load ptr, ptr %4, align 8
  store ptr %7, ptr %6, align 8
  ret void
}

; Function Attrs: mustprogress uwtable
define internal noundef float @_ZNK5faiss12_GLOBAL__N_110DCTemplateINS0_17QuantizerTemplateINS0_9Codec4bitELb1ELi1EEENS0_12SimilarityIPILi1EEELi1EE16compute_distanceEPKfPKh(ptr noundef nonnull align 8 dereferenceable(56) %0, ptr noundef %1, ptr noundef %2) #0 align 2 {
  %4 = alloca ptr, align 8
  %5 = alloca float, align 4
  %6 = alloca ptr, align 8
  %7 = alloca ptr, align 8
  %8 = alloca ptr, align 8
  %9 = alloca i32, align 4
  %10 = alloca ptr, align 8
  %11 = alloca ptr, align 8
  %12 = alloca i32, align 4
  %13 = alloca float, align 4
  %14 = alloca ptr, align 8
  %15 = alloca ptr, align 8
  %16 = alloca ptr, align 8
  %17 = alloca %"struct.faiss::(anonymous namespace)::SimilarityIP", align 8
  %18 = alloca i64, align 8
  %19 = alloca float, align 4
  store ptr %0, ptr %14, align 8
  store ptr %1, ptr %15, align 8
  store ptr %2, ptr %16, align 8
  %20 = load ptr, ptr %14, align 8
  %21 = load ptr, ptr %15, align 8
  call void @_ZN5faiss12_GLOBAL__N_112SimilarityIPILi1EEC2EPKf(ptr noundef nonnull align 8 dereferenceable(20) %17, ptr noundef %21)
  store ptr %17, ptr %7, align 8
  %22 = load ptr, ptr %7, align 8
  %23 = getelementptr inbounds %"struct.faiss::(anonymous namespace)::SimilarityIP", ptr %22, i32 0, i32 2
  store float 0.000000e+00, ptr %23, align 8
  %24 = load ptr, ptr %22, align 8
  %25 = getelementptr inbounds %"struct.faiss::(anonymous namespace)::SimilarityIP", ptr %22, i32 0, i32 1
  store ptr %24, ptr %25, align 8
  store i64 0, ptr %18, align 8
  br label %26

26:                                               ; preds = %71, %3
  %27 = load i64, ptr %18, align 8
  %28 = getelementptr inbounds %"struct.faiss::(anonymous namespace)::DCTemplate.21", ptr %20, i32 0, i32 1
  %29 = getelementptr inbounds %"struct.faiss::(anonymous namespace)::QuantizerTemplate.6", ptr %28, i32 0, i32 1
  %30 = load i64, ptr %29, align 8
  %31 = icmp ult i64 %27, %30
  br i1 %31, label %32, label %74

32:                                               ; preds = %26
  %33 = getelementptr inbounds %"struct.faiss::(anonymous namespace)::DCTemplate.21", ptr %20, i32 0, i32 1
  %34 = load ptr, ptr %16, align 8
  %35 = load i64, ptr %18, align 8
  %36 = trunc i64 %35 to i32
  store ptr %33, ptr %10, align 8
  store ptr %34, ptr %11, align 8
  store i32 %36, ptr %12, align 4
  %37 = load ptr, ptr %10, align 8
  %38 = load ptr, ptr %11, align 8
  %39 = load i32, ptr %12, align 4
  store ptr %38, ptr %8, align 8
  store i32 %39, ptr %9, align 4
  %40 = load ptr, ptr %8, align 8
  %41 = load i32, ptr %9, align 4
  %42 = sdiv i32 %41, 2
  %43 = sext i32 %42 to i64
  %44 = getelementptr inbounds i8, ptr %40, i64 %43
  %45 = load i8, ptr %44, align 1
  %46 = zext i8 %45 to i32
  %47 = load i32, ptr %9, align 4
  %48 = and i32 %47, 1
  %49 = shl i32 %48, 2
  %50 = ashr i32 %46, %49
  %51 = and i32 %50, 15
  %52 = sitofp i32 %51 to float
  %53 = fadd float %52, 5.000000e-01
  %54 = fdiv float %53, 1.500000e+01
  store float %54, ptr %13, align 4
  %55 = getelementptr inbounds %"struct.faiss::(anonymous namespace)::QuantizerTemplate.6", ptr %37, i32 0, i32 2
  %56 = load float, ptr %55, align 8
  %57 = load float, ptr %13, align 4
  %58 = getelementptr inbounds %"struct.faiss::(anonymous namespace)::QuantizerTemplate.6", ptr %37, i32 0, i32 3
  %59 = load float, ptr %58, align 4
  %60 = call noundef float @llvm.fmuladd.f32(float %57, float %59, float %56)
  store float %60, ptr %19, align 4
  %61 = load float, ptr %19, align 4
  store ptr %17, ptr %4, align 8
  store float %61, ptr %5, align 4
  %62 = load ptr, ptr %4, align 8
  %63 = getelementptr inbounds %"struct.faiss::(anonymous namespace)::SimilarityIP", ptr %62, i32 0, i32 1
  %64 = load ptr, ptr %63, align 8
  %65 = getelementptr inbounds float, ptr %64, i32 1
  store ptr %65, ptr %63, align 8
  %66 = load float, ptr %64, align 4
  %67 = load float, ptr %5, align 4
  %68 = getelementptr inbounds %"struct.faiss::(anonymous namespace)::SimilarityIP", ptr %62, i32 0, i32 2
  %69 = load float, ptr %68, align 8
  %70 = call float @llvm.fmuladd.f32(float %66, float %67, float %69)
  store float %70, ptr %68, align 8
  br label %71

71:                                               ; preds = %32
  %72 = load i64, ptr %18, align 8
  %73 = add i64 %72, 1
  store i64 %73, ptr %18, align 8
  br label %26, !llvm.loop !64

74:                                               ; preds = %26
  store ptr %17, ptr %6, align 8
  %75 = load ptr, ptr %6, align 8
  %76 = getelementptr inbounds %"struct.faiss::(anonymous namespace)::SimilarityIP", ptr %75, i32 0, i32 2
  %77 = load float, ptr %76, align 8
  ret float %77
}

; Function Attrs: mustprogress uwtable
define internal noundef float @_ZNK5faiss12_GLOBAL__N_110DCTemplateINS0_17QuantizerTemplateINS0_9Codec4bitELb1ELi1EEENS0_12SimilarityIPILi1EEELi1EE13query_to_codeEPKh(ptr noundef nonnull align 8 dereferenceable(56) %0, ptr noundef %1) unnamed_addr #0 align 2 {
  %3 = alloca ptr, align 8
  %4 = alloca ptr, align 8
  store ptr %0, ptr %3, align 8
  store ptr %1, ptr %4, align 8
  %5 = load ptr, ptr %3, align 8
  %6 = getelementptr inbounds %"struct.faiss::ScalarQuantizer::SQDistanceComputer", ptr %5, i32 0, i32 1
  %7 = load ptr, ptr %6, align 8
  %8 = load ptr, ptr %4, align 8
  %9 = call noundef float @_ZNK5faiss12_GLOBAL__N_110DCTemplateINS0_17QuantizerTemplateINS0_9Codec4bitELb1ELi1EEENS0_12SimilarityIPILi1EEELi1EE16compute_distanceEPKfPKh(ptr noundef nonnull align 8 dereferenceable(56) %5, ptr noundef %7, ptr noundef %8)
  ret float %9
}

; Function Attrs: mustprogress uwtable
define internal noundef float @_ZNK5faiss12_GLOBAL__N_114IVFSQScannerIPINS0_10DCTemplateINS0_17QuantizerTemplateINS0_9Codec4bitELb1ELi1EEENS0_12SimilarityIPILi1EEELi1EEELi2EE16distance_to_codeEPKh(ptr noundef nonnull align 8 dereferenceable(104) %0, ptr noundef %1) unnamed_addr #0 align 2 {
  %3 = alloca ptr, align 8
  %4 = alloca ptr, align 8
  store ptr %0, ptr %3, align 8
  store ptr %1, ptr %4, align 8
  %5 = load ptr, ptr %3, align 8
  %6 = getelementptr inbounds %"struct.faiss::(anonymous namespace)::IVFSQScannerIP.53", ptr %5, i32 0, i32 3
  %7 = load float, ptr %6, align 4
  %8 = getelementptr inbounds %"struct.faiss::(anonymous namespace)::IVFSQScannerIP.53", ptr %5, i32 0, i32 1
  %9 = load ptr, ptr %4, align 8
  %10 = call noundef float @_ZNK5faiss12_GLOBAL__N_110DCTemplateINS0_17QuantizerTemplateINS0_9Codec4bitELb1ELi1EEENS0_12SimilarityIPILi1EEELi1EE13query_to_codeEPKh(ptr noundef nonnull align 8 dereferenceable(56) %8, ptr noundef %9)
  %11 = fadd float %7, %10
  ret float %11
}