; Function Attrs: mustprogress nofree norecurse nosync nounwind willreturn memory(read, inaccessiblemem: none) uwtable
define internal noundef float @_ZNK5faiss12_GLOBAL__N_114IVFSQScannerIPINS0_10DCTemplateINS0_17QuantizerTemplateINS0_9Codec4bitELb1ELi1EEENS0_12SimilarityIPILi1EEELi1EEELi2EE16distance_to_codeEPKh(ptr nocapture noundef nonnull readonly align 8 dereferenceable(104) %0, ptr nocapture noundef readonly %1) unnamed_addr #20 align 2 {
  %3 = getelementptr inbounds i8, ptr %0, i64 100
  %4 = load float, ptr %3, align 4
  %5 = getelementptr inbounds i8, ptr %0, i64 80
  %6 = load i64, ptr %5, align 8
  %.not.i.i = icmp eq i64 %6, 0
  br i1 %.not.i.i, label %_ZNK5faiss12_GLOBAL__N_110DCTemplateINS0_17QuantizerTemplateINS0_9Codec4bitELb1ELi1EEENS0_12SimilarityIPILi1EEELi1EE13query_to_codeEPKh.exit, label %.lr.ph.i.i

.lr.ph.i.i:                                       ; preds = %2
  %7 = getelementptr inbounds i8, ptr %0, i64 64
  %8 = load ptr, ptr %7, align 8
  %9 = getelementptr inbounds i8, ptr %0, i64 88
  %10 = load float, ptr %9, align 8
  %11 = getelementptr inbounds i8, ptr %0, i64 92
  %12 = load float, ptr %11, align 4
  br label %13

13:                                               ; preds = %13, %.lr.ph.i.i
  %.020.i.i = phi i64 [ 0, %.lr.ph.i.i ], [ %31, %13 ]
  %.sroa.5.019.i.i = phi float [ 0.000000e+00, %.lr.ph.i.i ], [ %30, %13 ]
  %.sroa.2.018.i.i = phi ptr [ %8, %.lr.ph.i.i ], [ %28, %13 ]
  %14 = trunc i64 %.020.i.i to i32
  %15 = sdiv i32 %14, 2
  %16 = sext i32 %15 to i64
  %17 = getelementptr inbounds i8, ptr %1, i64 %16
  %18 = load i8, ptr %17, align 1
  %19 = zext i8 %18 to i32
  %20 = shl i32 %14, 2
  %21 = and i32 %20, 4
  %22 = lshr i32 %19, %21
  %23 = and i32 %22, 15
  %24 = sitofp i32 %23 to float
  %25 = fadd float %24, 5.000000e-01
  %26 = fdiv float %25, 1.500000e+01
  %27 = tail call noundef float @llvm.fmuladd.f32(float %26, float %12, float %10)
  %28 = getelementptr inbounds i8, ptr %.sroa.2.018.i.i, i64 4
  %29 = load float, ptr %.sroa.2.018.i.i, align 4
  %30 = tail call float @llvm.fmuladd.f32(float %29, float %27, float %.sroa.5.019.i.i)
  %31 = add nuw i64 %.020.i.i, 1
  %exitcond.not.i.i = icmp eq i64 %31, %6
  br i1 %exitcond.not.i.i, label %_ZNK5faiss12_GLOBAL__N_110DCTemplateINS0_17QuantizerTemplateINS0_9Codec4bitELb1ELi1EEENS0_12SimilarityIPILi1EEELi1EE13query_to_codeEPKh.exit, label %13, !llvm.loop !63

_ZNK5faiss12_GLOBAL__N_110DCTemplateINS0_17QuantizerTemplateINS0_9Codec4bitELb1ELi1EEENS0_12SimilarityIPILi1EEELi1EE13query_to_codeEPKh.exit: ; preds = %13, %2
  %.sroa.5.0.lcssa.i.i = phi float [ 0.000000e+00, %2 ], [ %30, %13 ]
  %32 = fadd float %4, %.sroa.5.0.lcssa.i.i
  ret float %32
}